target datalayout = "e-m:e-p270:32:32-p271:32:32-p272:64:64-i64:64-i128:128-f80:128-n8:16:32:64-S128"
target triple = "x86_64-pc-linux-gnu"

%struct.curl_mimepart = type { ptr, ptr, i32, i32, ptr, ptr, ptr, ptr, ptr, ptr, ptr, ptr, ptr, ptr, ptr, i64, %struct.mime_state, ptr, %struct.mime_encoder_state, i64 }
%struct.mime_state = type { i32, ptr, i64 }
%struct.mime_encoder_state = type { i64, i64, i64, [256 x i8] }

; Function Attrs: nounwind uwtable
define internal i64 @encoder_base64_size(ptr noundef %0) #0 {
  %2 = alloca i64, align 8
  %3 = alloca ptr, align 8
  %4 = alloca i64, align 8
  %5 = alloca i32, align 4
  store ptr %0, ptr %3, align 8, !tbaa !4
  call void @llvm.lifetime.start.p0(i64 8, ptr %4) #8
  %6 = load ptr, ptr %3, align 8, !tbaa !4
  %7 = getelementptr inbounds nuw %struct.curl_mimepart, ptr %6, i32 0, i32 15
  %8 = load i64, ptr %7, align 8, !tbaa !32
  store i64 %8, ptr %4, align 8, !tbaa !50
  %9 = load i64, ptr %4, align 8, !tbaa !50
  %10 = icmp sle i64 %9, 0
  br i1 %10, label %11, label %13

11:                                               ; preds = %1
  %12 = load i64, ptr %4, align 8, !tbaa !50
  store i64 %12, ptr %2, align 8
  store i32 1, ptr %5, align 4
  br label %25

13:                                               ; preds = %1
  %14 = load i64, ptr %4, align 8, !tbaa !50
  %15 = sub nsw i64 %14, 1
  %16 = sdiv i64 %15, 3
  %17 = add nsw i64 1, %16
  %18 = mul nsw i64 4, %17
  store i64 %18, ptr %4, align 8, !tbaa !50
  %19 = load i64, ptr %4, align 8, !tbaa !50
  %20 = load i64, ptr %4, align 8, !tbaa !50
  %21 = sub nsw i64 %20, 1
  %22 = sdiv i64 %21, 76
  %23 = mul nsw i64 2, %22
  %24 = add nsw i64 %19, %23
  store i64 %24, ptr %2, align 8
  store i32 1, ptr %5, align 4
  br label %25

25:                                               ; preds = %13, %11
  call void @llvm.lifetime.end.p0(i64 8, ptr %4) #8
  %26 = load i64, ptr %2, align 8
  ret i64 %26
}