; Function Attrs: mustprogress nofree norecurse nosync nounwind willreturn memory(argmem: read) uwtable
define internal range(i64 4, 1) i64 @encoder_base64_size(ptr noundef readonly captures(none) %0) #13 {
  %2 = getelementptr inbounds nuw i8, ptr %0, i64 112
  %3 = load i64, ptr %2, align 8, !tbaa !22
  %4 = icmp slt i64 %3, 1
  br i1 %4, label %13, label %5

5:                                                ; preds = %1
  %6 = add nsw i64 %3, -1
  %7 = udiv i64 %6, 3
  %8 = shl nuw i64 %7, 2
  %9 = add nuw i64 %8, 4
  %10 = udiv i64 %6, 57
  %11 = shl nuw nsw i64 %10, 1
  %12 = add nuw nsw i64 %9, %11
  br label %13

13:                                               ; preds = %1, %5
  %.0 = phi i64 [ %12, %5 ], [ %3, %1 ]
  ret i64 %.0
}